; Function Attrs: nounwind uwtable
define ptr @pmix_bfrop_buffer_extend(ptr noundef captures(none) %0, i64 noundef %1) local_unnamed_addr #0 {
  %3 = icmp eq i64 %1, 0
  br i1 %3, label %4, label %7

4:                                                ; preds = %2
  %5 = getelementptr inbounds nuw i8, ptr %0, i64 136
  %6 = load ptr, ptr %5, align 8, !tbaa !120
  br label %pmix_bfrops_base_tma_buffer_extend.exit

7:                                                ; preds = %2
  %8 = getelementptr inbounds nuw i8, ptr %0, i64 152
  %9 = load i64, ptr %8, align 8, !tbaa !122
  %10 = getelementptr inbounds nuw i8, ptr %0, i64 160
  %11 = load i64, ptr %10, align 8, !tbaa !123
  %12 = sub i64 %9, %11
  %.not.i = icmp ult i64 %12, %1
  br i1 %.not.i, label %16, label %13

13:                                               ; preds = %7
  %14 = getelementptr inbounds nuw i8, ptr %0, i64 136
  %15 = load ptr, ptr %14, align 8, !tbaa !120
  br label %pmix_bfrops_base_tma_buffer_extend.exit

16:                                               ; preds = %7
  %17 = add i64 %11, %1
  %18 = load i64, ptr getelementptr inbounds nuw (i8, ptr @pmix_bfrops_globals, i64 288), align 8, !tbaa !124
  %.not54.i = icmp ult i64 %17, %18
  br i1 %.not54.i, label %24, label %19

19:                                               ; preds = %16
  %20 = add i64 %18, %17
  %.fr55.i = freeze i64 %20
  %21 = add i64 %.fr55.i, -1
  %22 = urem i64 %21, %18
  %23 = sub nuw i64 %21, %22
  br label %.loopexit.i

24:                                               ; preds = %16
  %25 = icmp eq i64 %9, 0
  %26 = load i64, ptr getelementptr inbounds nuw (i8, ptr @pmix_bfrops_globals, i64 280), align 8
  %spec.select.i = select i1 %25, i64 %26, i64 %9
  br label %27

27:                                               ; preds = %27, %24
  %.2.i = phi i64 [ %spec.select.i, %24 ], [ %29, %27 ]
  %28 = icmp ult i64 %.2.i, %17
  %29 = shl i64 %.2.i, 1
  br i1 %28, label %27, label %.loopexit.i, !llvm.loop !128

.loopexit.i:                                      ; preds = %27, %19
  %.045.i = phi i64 [ %23, %19 ], [ %.2.i, %27 ]
  %30 = getelementptr inbounds nuw i8, ptr %0, i64 128
  %31 = load ptr, ptr %30, align 8, !tbaa !129
  %.not56.i = icmp eq ptr %31, null
  br i1 %.not56.i, label %46, label %32

32:                                               ; preds = %.loopexit.i
  %33 = getelementptr inbounds nuw i8, ptr %0, i64 136
  %34 = load ptr, ptr %33, align 8, !tbaa !120
  %35 = ptrtoint ptr %34 to i64
  %36 = ptrtoint ptr %31 to i64
  %37 = sub i64 %35, %36
  %38 = getelementptr inbounds nuw i8, ptr %0, i64 144
  %39 = load ptr, ptr %38, align 8, !tbaa !130
  %40 = ptrtoint ptr %39 to i64
  %41 = sub i64 %40, %36
  %42 = tail call noalias noundef ptr @realloc(ptr noundef nonnull %31, i64 noundef %.045.i) #27
  %43 = getelementptr inbounds nuw i8, ptr %42, i64 %37
  %44 = load i64, ptr %8, align 8, !tbaa !122
  %45 = sub i64 %.045.i, %44
  tail call void @llvm.memset.p0.i64(ptr align 1 %43, i8 0, i64 %45, i1 false)
  br label %47

46:                                               ; preds = %.loopexit.i
  store i64 0, ptr %10, align 8, !tbaa !123
  %calloc.i = tail call ptr @calloc(i64 1, i64 %.045.i)
  br label %47

47:                                               ; preds = %46, %32
  %.sink.i = phi ptr [ %calloc.i, %46 ], [ %42, %32 ]
  %.044.i = phi i64 [ 0, %46 ], [ %37, %32 ]
  %.0.i = phi i64 [ 0, %46 ], [ %41, %32 ]
  store ptr %.sink.i, ptr %30, align 8, !tbaa !129
  %48 = icmp eq ptr %.sink.i, null
  br i1 %48, label %pmix_bfrops_base_tma_buffer_extend.exit, label %49

49:                                               ; preds = %47
  %50 = getelementptr inbounds nuw i8, ptr %.sink.i, i64 %.044.i
  %51 = getelementptr inbounds nuw i8, ptr %0, i64 136
  store ptr %50, ptr %51, align 8, !tbaa !120
  %52 = getelementptr inbounds nuw i8, ptr %.sink.i, i64 %.0.i
  %53 = getelementptr inbounds nuw i8, ptr %0, i64 144
  store ptr %52, ptr %53, align 8, !tbaa !130
  store i64 %.045.i, ptr %8, align 8, !tbaa !122
  br label %pmix_bfrops_base_tma_buffer_extend.exit

pmix_bfrops_base_tma_buffer_extend.exit:          ; preds = %4, %13, %47, %49
  %.046.i = phi ptr [ %6, %4 ], [ %15, %13 ], [ %50, %49 ], [ null, %47 ]
  ret ptr %.046.i
}